target datalayout = "e-m:e-p270:32:32-p271:32:32-p272:64:64-i64:64-i128:128-f80:128-n8:16:32:64-S128"
target triple = "x86_64-pc-linux-gnu"

@.str = private unnamed_addr constant [34 x i8] c"../openssl/crypto/asn1/tasn_prn.c\00", align 1

; Function Attrs: nounwind uwtable
define internal i32 @asn1_print_integer(ptr noundef %0, ptr noundef %1) #0 {
  %3 = alloca i32, align 4
  %4 = alloca ptr, align 8
  %5 = alloca ptr, align 8
  %6 = alloca ptr, align 8
  %7 = alloca i32, align 4
  %8 = alloca i32, align 4
  store ptr %0, ptr %4, align 8, !tbaa !16
  store ptr %1, ptr %5, align 8, !tbaa !66
  call void @llvm.lifetime.start.p0(i64 8, ptr %6) #4
  call void @llvm.lifetime.start.p0(i64 4, ptr %7) #4
  store i32 1, ptr %7, align 4, !tbaa !20
  %9 = load ptr, ptr %5, align 8, !tbaa !66
  %10 = call ptr @i2s_ASN1_INTEGER(ptr noundef null, ptr noundef %9)
  store ptr %10, ptr %6, align 8, !tbaa !24
  %11 = load ptr, ptr %6, align 8, !tbaa !24
  %12 = icmp eq ptr %11, null
  br i1 %12, label %13, label %14

13:                                               ; preds = %2
  store i32 0, ptr %3, align 4
  store i32 1, ptr %8, align 4
  br label %23

14:                                               ; preds = %2
  %15 = load ptr, ptr %4, align 8, !tbaa !16
  %16 = load ptr, ptr %6, align 8, !tbaa !24
  %17 = call i32 @BIO_puts(ptr noundef %15, ptr noundef %16)
  %18 = icmp sle i32 %17, 0
  br i1 %18, label %19, label %20

19:                                               ; preds = %14
  store i32 0, ptr %7, align 4, !tbaa !20
  br label %20

20:                                               ; preds = %19, %14
  %21 = load ptr, ptr %6, align 8, !tbaa !24
  call void @CRYPTO_free(ptr noundef %21, ptr noundef @.str, i32 noundef 400)
  %22 = load i32, ptr %7, align 4, !tbaa !20
  store i32 %22, ptr %3, align 4
  store i32 1, ptr %8, align 4
  br label %23

23:                                               ; preds = %20, %13
  call void @llvm.lifetime.end.p0(i64 4, ptr %7) #4
  call void @llvm.lifetime.end.p0(i64 8, ptr %6) #4
  %24 = load i32, ptr %3, align 4
  ret i32 %24
}