; Function Attrs: nounwind uwtable
define internal fastcc range(i32 0, 2) i32 @asn1_print_integer(ptr noundef %0, ptr noundef %1) unnamed_addr #0 {
  %3 = tail call ptr @i2s_ASN1_INTEGER(ptr noundef null, ptr noundef %1) #5
  %4 = icmp eq ptr %3, null
  br i1 %4, label %8, label %5

5:                                                ; preds = %2
  %6 = tail call i32 @BIO_puts(ptr noundef %0, ptr noundef nonnull %3) #5
  %7 = icmp sgt i32 %6, 0
  %spec.select = zext i1 %7 to i32
  tail call void @CRYPTO_free(ptr noundef nonnull %3, ptr noundef nonnull @.str, i32 noundef 400) #5
  br label %8

8:                                                ; preds = %2, %5
  %.06 = phi i32 [ %spec.select, %5 ], [ 0, %2 ]
  ret i32 %.06
}